target datalayout = "e-m:e-p270:32:32-p271:32:32-p272:64:64-i64:64-i128:128-f80:128-n8:16:32:64-S128"
target triple = "x86_64-pc-linux-gnu"

@.str.4 = private unnamed_addr constant [27 x i8] c"size_t overflow: %lu * %lu\00", align 1

; Function Attrs: inlinehint nounwind uwtable
define internal i64 @st_mult(i64 noundef %0, i64 noundef %1) #7 {
  %3 = alloca i64, align 8
  %4 = alloca i64, align 8
  store i64 %0, ptr %3, align 8, !tbaa !21
  store i64 %1, ptr %4, align 8, !tbaa !21
  %5 = load i64, ptr %3, align 8, !tbaa !21
  %6 = icmp ne i64 %5, 0
  br i1 %6, label %7, label %15

7:                                                ; preds = %2
  %8 = load i64, ptr %4, align 8, !tbaa !21
  %9 = load i64, ptr %3, align 8, !tbaa !21
  %10 = udiv i64 -1, %9
  %11 = icmp ugt i64 %8, %10
  br i1 %11, label %12, label %15

12:                                               ; preds = %7
  %13 = load i64, ptr %3, align 8, !tbaa !21
  %14 = load i64, ptr %4, align 8, !tbaa !21
  call void (ptr, ...) @die(ptr noundef @.str.4, i64 noundef %13, i64 noundef %14) #13
  unreachable

15:                                               ; preds = %7, %2
  %16 = load i64, ptr %3, align 8, !tbaa !21
  %17 = load i64, ptr %4, align 8, !tbaa !21
  %18 = mul i64 %16, %17
  ret i64 %18
}

; Function Attrs: inlinehint nounwind uwtable
define internal ptr @reftable_alloc_grow(ptr noundef %0, i64 noundef %1, i64 noundef %2, ptr noundef %3) #7 {
  %5 = alloca ptr, align 8
  %6 = alloca ptr, align 8
  %7 = alloca i64, align 8
  %8 = alloca i64, align 8
  %9 = alloca ptr, align 8
  %10 = alloca ptr, align 8
  %11 = alloca i64, align 8
  %12 = alloca i32, align 4
  store ptr %0, ptr %6, align 8, !tbaa !23
  store i64 %1, ptr %7, align 8, !tbaa !21
  store i64 %2, ptr %8, align 8, !tbaa !21
  store ptr %3, ptr %9, align 8, !tbaa !84
  call void @llvm.lifetime.start.p0(i64 8, ptr %10) #10
  call void @llvm.lifetime.start.p0(i64 8, ptr %11) #10
  %13 = load ptr, ptr %9, align 8, !tbaa !84
  %14 = load i64, ptr %13, align 8, !tbaa !21
  %15 = mul i64 %14, 2
  %16 = add i64 %15, 1
  store i64 %16, ptr %11, align 8, !tbaa !21
  %17 = load i64, ptr %11, align 8, !tbaa !21
  %18 = load i64, ptr %7, align 8, !tbaa !21
  %19 = icmp ult i64 %17, %18
  br i1 %19, label %20, label %22

20:                                               ; preds = %4
  %21 = load i64, ptr %7, align 8, !tbaa !21
  store i64 %21, ptr %11, align 8, !tbaa !21
  br label %22

22:                                               ; preds = %20, %4
  %23 = load ptr, ptr %6, align 8, !tbaa !23
  %24 = load i64, ptr %8, align 8, !tbaa !21
  %25 = load i64, ptr %11, align 8, !tbaa !21
  %26 = call i64 @st_mult(i64 noundef %24, i64 noundef %25)
  %27 = call ptr @reftable_realloc(ptr noundef %23, i64 noundef %26)
  store ptr %27, ptr %10, align 8, !tbaa !23
  %28 = load ptr, ptr %10, align 8, !tbaa !23
  %29 = icmp ne ptr %28, null
  br i1 %29, label %32, label %30

30:                                               ; preds = %22
  %31 = load ptr, ptr %6, align 8, !tbaa !23
  store ptr %31, ptr %5, align 8
  store i32 1, ptr %12, align 4
  br label %36

32:                                               ; preds = %22
  %33 = load i64, ptr %11, align 8, !tbaa !21
  %34 = load ptr, ptr %9, align 8, !tbaa !84
  store i64 %33, ptr %34, align 8, !tbaa !21
  %35 = load ptr, ptr %10, align 8, !tbaa !23
  store ptr %35, ptr %5, align 8
  store i32 1, ptr %12, align 4
  br label %36

36:                                               ; preds = %32, %30
  call void @llvm.lifetime.end.p0(i64 8, ptr %11) #10
  call void @llvm.lifetime.end.p0(i64 8, ptr %10) #10
  %37 = load ptr, ptr %5, align 8
  ret ptr %37
}