; Function Attrs: inlinehint nounwind uwtable
define internal fastcc ptr @reftable_alloc_grow(ptr noundef %0, i64 noundef %1, ptr noundef nonnull captures(none) %2) unnamed_addr #9 {
  %4 = load i64, ptr %2, align 8, !tbaa !12
  %5 = shl i64 %4, 1
  %6 = or disjoint i64 %5, 1
  %spec.select = tail call i64 @llvm.umax.i64(i64 %6, i64 %1)
  %mul.ov.i = icmp ugt i64 %spec.select, 2305843009213693951
  br i1 %mul.ov.i, label %7, label %st_mult.exit

7:                                                ; preds = %3
  tail call void (ptr, ...) @die(ptr noundef nonnull @.str.4, i64 noundef 8, i64 noundef %spec.select) #19
  unreachable

st_mult.exit:                                     ; preds = %3
  %8 = shl nuw i64 %spec.select, 3
  %9 = tail call ptr @reftable_realloc(ptr noundef %0, i64 noundef %8) #16
  %.not = icmp eq ptr %9, null
  br i1 %.not, label %11, label %10

10:                                               ; preds = %st_mult.exit
  store i64 %spec.select, ptr %2, align 8, !tbaa !12
  br label %11

11:                                               ; preds = %st_mult.exit, %10
  %.012 = phi ptr [ %9, %10 ], [ %0, %st_mult.exit ]
  ret ptr %.012
}